target datalayout = "e-m:e-p270:32:32-p271:32:32-p272:64:64-i64:64-i128:128-f80:128-n8:16:32:64-S128"
target triple = "x86_64-pc-linux-gnu"

%struct.LOCKTAG = type { i32, i32, i32, i16, i8, i8 }

; Function Attrs: nounwind uwtable
define dso_local void @LockSharedObject(i32 noundef %0, i32 noundef %1, i16 noundef zeroext %2, i32 noundef %3) #0 {
  %5 = alloca i32, align 4
  %6 = alloca i32, align 4
  %7 = alloca i16, align 2
  %8 = alloca i32, align 4
  %9 = alloca %struct.LOCKTAG, align 4
  store i32 %0, ptr %5, align 4
  store i32 %1, ptr %6, align 4
  store i16 %2, ptr %7, align 2
  store i32 %3, ptr %8, align 4
  call void @llvm.lifetime.start.p0(i64 16, ptr %9) #6
  %10 = getelementptr inbounds nuw %struct.LOCKTAG, ptr %9, i32 0, i32 0
  store i32 0, ptr %10, align 4
  %11 = load i32, ptr %5, align 4
  %12 = getelementptr inbounds nuw %struct.LOCKTAG, ptr %9, i32 0, i32 1
  store i32 %11, ptr %12, align 4
  %13 = load i32, ptr %6, align 4
  %14 = getelementptr inbounds nuw %struct.LOCKTAG, ptr %9, i32 0, i32 2
  store i32 %13, ptr %14, align 4
  %15 = load i16, ptr %7, align 2
  %16 = getelementptr inbounds nuw %struct.LOCKTAG, ptr %9, i32 0, i32 3
  store i16 %15, ptr %16, align 4
  %17 = getelementptr inbounds nuw %struct.LOCKTAG, ptr %9, i32 0, i32 4
  store i8 8, ptr %17, align 2
  %18 = getelementptr inbounds nuw %struct.LOCKTAG, ptr %9, i32 0, i32 5
  store i8 1, ptr %18, align 1
  %19 = load i32, ptr %8, align 4
  %20 = call i32 @LockAcquire(ptr noundef %9, i32 noundef %19, i1 noundef zeroext false, i1 noundef zeroext false)
  call void @AcceptInvalidationMessages()
  call void @llvm.lifetime.end.p0(i64 16, ptr %9) #6
  ret void
}